(iffield
LUT
p1
(dp2
S'divLUT'
p3
(lp4
(lp5
S'NaN'
p6
ag6
ag6
ag6
ag6
ag6
ag6
ag6
ag6
ag6
ag6
ag6
ag6
ag6
ag6
ag6
aa(lp7
I0
aI1
aI9
aI14
aI13
aI11
aI7
aI6
aI15
aI2
aI12
aI5
aI10
aI4
aI3
aI8
aa(lp8
I0
aI2
aI1
aI15
aI9
aI5
aI14
aI12
aI13
aI4
aI11
aI10
aI7
aI8
aI6
aI3
aa(lp9
I0
aI3
aI8
aI1
aI4
aI14
aI9
aI10
aI2
aI6
aI7
aI15
aI13
aI12
aI5
aI11
aa(lp10
I0
aI4
aI2
aI13
aI1
aI10
aI15
aI11
aI9
aI8
aI5
aI7
aI14
aI3
aI12
aI6
aa(lp11
I0
aI5
aI11
aI3
aI12
aI1
aI8
aI13
aI6
aI10
aI9
aI2
aI4
aI7
aI15
aI14
aa(lp12
I0
aI6
aI3
aI2
aI8
aI15
aI1
aI7
aI4
aI12
aI14
aI13
aI9
aI11
aI10
aI5
aa(lp13
I0
aI7
aI10
aI12
aI5
aI4
aI6
aI1
aI11
aI14
aI2
aI8
aI3
aI15
aI9
aI13
aa(lp14
I0
aI8
aI4
aI9
aI2
aI7
aI13
aI5
aI1
aI3
aI10
aI14
aI15
aI6
aI11
aI12
aa(lp15
I0
aI9
aI13
aI7
aI15
aI12
aI10
aI3
aI14
aI1
aI6
aI11
aI5
aI2
aI8
aI4
aa(lp16
I0
aI10
aI5
aI6
aI11
aI2
aI3
aI9
aI12
aI7
aI1
aI4
aI8
aI14
aI13
aI15
aa(lp17
I0
aI11
aI12
aI8
aI6
aI9
aI4
aI15
aI3
aI5
aI13
aI1
aI2
aI10
aI14
aI7
aa(lp18
I0
aI12
aI6
aI4
aI3
aI13
aI2
aI14
aI8
aI11
aI15
aI9
aI1
aI5
aI7
aI10
aa(lp19
I0
aI13
aI15
aI10
aI14
aI6
aI5
aI8
aI7
aI9
aI3
aI12
aI11
aI1
aI4
aI2
aa(lp20
I0
aI14
aI7
aI11
aI10
aI8
aI12
aI2
aI5
aI15
aI4
aI3
aI6
aI13
aI1
aI9
aa(lp21
I0
aI15
aI14
aI5
aI7
aI3
aI11
aI4
aI10
aI13
aI8
aI6
aI12
aI9
aI2
aI1
aasS'mulLUT'
p22
(lp23
(lp24
I0
aI0
aI0
aI0
aI0
aI0
aI0
aI0
aI0
aI0
aI0
aI0
aI0
aI0
aI0
aI0
aa(lp25
I0
aI1
aI2
aI3
aI4
aI5
aI6
aI7
aI8
aI9
aI10
aI11
aI12
aI13
aI14
aI15
aa(lp26
I0
aI2
aI4
aI6
aI8
aI10
aI12
aI14
aI3
aI1
aI7
aI5
aI11
aI9
aI15
aI13
aa(lp27
I0
aI3
aI6
aI5
aI12
aI15
aI10
aI9
aI11
aI8
aI13
aI14
aI7
aI4
aI1
aI2
aa(lp28
I0
aI4
aI8
aI12
aI3
aI7
aI11
aI15
aI6
aI2
aI14
aI10
aI5
aI1
aI13
aI9
aa(lp29
I0
aI5
aI10
aI15
aI7
aI2
aI13
aI8
aI14
aI11
aI4
aI1
aI9
aI12
aI3
aI6
aa(lp30
I0
aI6
aI12
aI10
aI11
aI13
aI7
aI1
aI5
aI3
aI9
aI15
aI14
aI8
aI2
aI4
aa(lp31
I0
aI7
aI14
aI9
aI15
aI8
aI1
aI6
aI13
aI10
aI3
aI4
aI2
aI5
aI12
aI11
aa(lp32
I0
aI8
aI3
aI11
aI6
aI14
aI5
aI13
aI12
aI4
aI15
aI7
aI10
aI2
aI9
aI1
aa(lp33
I0
aI9
aI1
aI8
aI2
aI11
aI3
aI10
aI4
aI13
aI5
aI12
aI6
aI15
aI7
aI14
aa(lp34
I0
aI10
aI7
aI13
aI14
aI4
aI9
aI3
aI15
aI5
aI8
aI2
aI1
aI11
aI6
aI12
aa(lp35
I0
aI11
aI5
aI14
aI10
aI1
aI15
aI4
aI7
aI12
aI2
aI9
aI13
aI6
aI8
aI3
aa(lp36
I0
aI12
aI11
aI7
aI5
aI9
aI14
aI2
aI10
aI6
aI1
aI13
aI15
aI3
aI4
aI8
aa(lp37
I0
aI13
aI9
aI4
aI1
aI12
aI8
aI5
aI2
aI15
aI11
aI6
aI3
aI14
aI10
aI7
aa(lp38
I0
aI14
aI15
aI1
aI13
aI3
aI2
aI12
aI9
aI7
aI6
aI8
aI4
aI10
aI11
aI5
aa(lp39
I0
aI15
aI13
aI2
aI9
aI6
aI4
aI11
aI1
aI14
aI12
aI3
aI8
aI7
aI5
aI10
aasb.