(iffield
LUT
p1
(dp2
S'divLUT'
p3
(lp4
(lp5
S'NaN'
p6
ag6
ag6
ag6
ag6
ag6
ag6
ag6
ag6
ag6
ag6
ag6
ag6
ag6
ag6
ag6
ag6
ag6
ag6
ag6
ag6
ag6
ag6
ag6
ag6
ag6
ag6
ag6
ag6
ag6
ag6
ag6
aa(lp7
I0
aI1
aI18
aI28
aI9
aI23
aI14
aI12
aI22
aI4
aI25
aI16
aI7
aI15
aI6
aI13
aI11
aI24
aI2
aI29
aI30
aI26
aI8
aI5
aI17
aI10
aI21
aI31
aI3
aI19
aI20
aI27
aa(lp8
I0
aI2
aI1
aI29
aI18
aI11
aI28
aI24
aI9
aI8
aI23
aI5
aI14
aI30
aI12
aI26
aI22
aI21
aI4
aI31
aI25
aI17
aI16
aI10
aI7
aI20
aI15
aI27
aI6
aI3
aI13
aI19
aa(lp9
I0
aI3
aI19
aI1
aI27
aI28
aI18
aI20
aI31
aI12
aI14
aI21
aI9
aI17
aI10
aI23
aI29
aI13
aI6
aI2
aI7
aI11
aI24
aI15
aI22
aI30
aI26
aI4
aI5
aI16
aI25
aI8
aa(lp10
I0
aI4
aI2
aI31
aI1
aI22
aI29
aI21
aI18
aI16
aI11
aI10
aI28
aI25
aI24
aI17
aI9
aI15
aI8
aI27
aI23
aI7
aI5
aI20
aI14
aI13
aI30
aI19
aI12
aI6
aI26
aI3
aa(lp11
I0
aI5
aI16
aI3
aI8
aI1
aI19
aI25
aI4
aI20
aI18
aI26
aI27
aI22
aI30
aI28
aI2
aI23
aI10
aI6
aI9
aI29
aI13
aI17
aI31
aI7
aI11
aI12
aI15
aI21
aI14
aI24
aa(lp12
I0
aI6
aI3
aI2
aI19
aI29
aI1
aI13
aI27
aI24
aI28
aI15
aI18
aI7
aI20
aI11
aI31
aI26
aI12
aI4
aI14
aI22
aI21
aI30
aI9
aI25
aI17
aI8
aI10
aI5
aI23
aI16
aa(lp13
I0
aI7
aI17
aI30
aI26
aI10
aI15
aI1
aI13
aI28
aI5
aI31
aI21
aI8
aI18
aI6
aI20
aI2
aI14
aI25
aI16
aI12
aI29
aI27
aI24
aI19
aI4
aI23
aI9
aI22
aI3
aI11
aa(lp14
I0
aI8
aI4
aI27
aI2
aI9
aI31
aI15
aI1
aI5
aI22
aI20
aI29
aI23
aI21
aI7
aI18
aI30
aI16
aI19
aI11
aI14
aI10
aI13
aI28
aI26
aI25
aI3
aI24
aI12
aI17
aI6
aa(lp15
I0
aI9
aI22
aI7
aI11
aI30
aI17
aI3
aI23
aI1
aI15
aI4
aI26
aI24
aI19
aI10
aI25
aI6
aI18
aI14
aI21
aI20
aI2
aI8
aI13
aI16
aI12
aI28
aI27
aI31
aI5
aI29
aa(lp16
I0
aI10
aI5
aI6
aI16
aI2
aI3
aI23
aI8
aI13
aI1
aI17
aI19
aI9
aI25
aI29
aI4
aI11
aI20
aI12
aI18
aI31
aI26
aI7
aI27
aI14
aI22
aI24
aI30
aI15
aI28
aI21
aa(lp17
I0
aI11
aI23
aI26
aI25
aI21
aI13
aI27
aI30
aI9
aI24
aI1
aI20
aI6
aI31
aI16
aI15
aI19
aI22
aI17
aI12
aI5
aI18
aI2
aI10
aI4
aI3
aI7
aI29
aI28
aI8
aI14
aa(lp18
I0
aI12
aI6
aI4
aI3
aI31
aI2
aI26
aI19
aI21
aI29
aI30
aI1
aI14
aI13
aI22
aI27
aI17
aI24
aI8
aI28
aI9
aI15
aI25
aI18
aI23
aI7
aI16
aI20
aI10
aI11
aI5
aa(lp19
I0
aI13
aI20
aI24
aI10
aI8
aI12
aI22
aI5
aI17
aI4
aI14
aI6
aI1
aI11
aI27
aI16
aI9
aI26
aI21
aI2
aI19
aI7
aI28
aI3
aI29
aI18
aI15
aI23
aI25
aI31
aI30
aa(lp20
I0
aI14
aI7
aI25
aI17
aI20
aI30
aI2
aI26
aI29
aI10
aI27
aI15
aI16
aI1
aI12
aI13
aI4
aI28
aI23
aI5
aI24
aI31
aI19
aI21
aI3
aI8
aI11
aI18
aI9
aI6
aI22
aa(lp21
I0
aI15
aI21
aI5
aI24
aI3
aI16
aI14
aI12
aI25
aI19
aI11
aI8
aI31
aI7
aI1
aI6
aI28
aI30
aI10
aI27
aI2
aI23
aI22
aI4
aI9
aI29
aI20
aI17
aI26
aI18
aI13
aa(lp22
I0
aI16
aI8
aI19
aI4
aI18
aI27
aI30
aI2
aI10
aI9
aI13
aI31
aI11
aI15
aI14
aI1
aI25
aI5
aI3
aI22
aI28
aI20
aI26
aI29
aI17
aI23
aI6
aI21
aI24
aI7
aI12
aa(lp23
I0
aI17
aI26
aI15
aI13
aI5
aI21
aI18
aI20
aI14
aI16
aI29
aI24
aI4
aI9
aI3
aI10
aI1
aI7
aI30
aI8
aI6
aI28
aI31
aI12
aI27
aI2
aI25
aI22
aI11
aI19
aI23
aa(lp24
I0
aI18
aI9
aI14
aI22
aI25
aI7
aI6
aI11
aI2
aI30
aI8
aI17
aI21
aI3
aI20
aI23
aI12
aI1
aI28
aI15
aI13
aI4
aI16
aI26
aI5
aI24
aI29
aI19
aI27
aI10
aI31
aa(lp25
I0
aI19
aI27
aI18
aI31
aI14
aI9
aI10
aI29
aI6
aI7
aI24
aI22
aI26
aI5
aI25
aI28
aI20
aI3
aI1
aI17
aI23
aI12
aI21
aI11
aI15
aI13
aI2
aI16
aI8
aI30
aI4
aa(lp26
I0
aI20
aI10
aI12
aI5
aI4
aI6
aI11
aI16
aI26
aI2
aI7
aI3
aI18
aI23
aI31
aI8
aI22
aI13
aI24
aI1
aI27
aI17
aI14
aI19
aI28
aI9
aI21
aI25
aI30
aI29
aI15
aa(lp27
I0
aI21
aI24
aI16
aI12
aI19
aI8
aI7
aI6
aI30
aI27
aI23
aI4
aI29
aI17
aI18
aI3
aI14
aI15
aI5
aI31
aI1
aI25
aI11
aI2
aI22
aI28
aI10
aI26
aI13
aI9
aI20
aa(lp28
I0
aI22
aI11
aI17
aI23
aI15
aI26
aI19
aI25
aI18
aI21
aI2
aI13
aI12
aI27
aI5
aI30
aI3
aI9
aI7
aI24
aI10
aI1
aI4
aI20
aI8
aI6
aI14
aI31
aI29
aI16
aI28
aa(lp29
I0
aI23
aI25
aI13
aI30
aI24
aI20
aI31
aI15
aI22
aI12
aI18
aI10
aI3
aI29
aI8
aI21
aI27
aI11
aI26
aI6
aI16
aI9
aI1
aI5
aI2
aI19
aI17
aI28
aI14
aI4
aI7
aa(lp30
I0
aI24
aI12
aI8
aI6
aI27
aI4
aI17
aI3
aI15
aI31
aI25
aI2
aI28
aI26
aI9
aI19
aI7
aI21
aI16
aI29
aI18
aI30
aI23
aI1
aI11
aI14
aI5
aI13
aI20
aI22
aI10
aa(lp31
I0
aI25
aI30
aI20
aI15
aI12
aI10
aI29
aI21
aI11
aI6
aI9
aI5
aI19
aI28
aI4
aI24
aI31
aI23
aI13
aI3
aI8
aI22
aI18
aI16
aI1
aI27
aI26
aI14
aI7
aI2
aI17
aa(lp32
I0
aI26
aI13
aI21
aI20
aI16
aI24
aI9
aI10
aI7
aI8
aI28
aI12
aI2
aI22
aI19
aI5
aI18
aI17
aI15
aI4
aI3
aI14
aI29
aI6
aI31
aI1
aI30
aI11
aI23
aI27
aI25
aa(lp33
I0
aI27
aI31
aI9
aI29
aI7
aI22
aI5
aI28
aI3
aI17
aI12
aI11
aI13
aI16
aI30
aI14
aI10
aI19
aI18
aI26
aI25
aI6
aI24
aI23
aI21
aI20
aI1
aI8
aI4
aI15
aI2
aa(lp34
I0
aI28
aI14
aI23
aI7
aI13
aI25
aI4
aI17
aI31
aI20
aI19
aI30
aI5
aI2
aI24
aI26
aI8
aI29
aI11
aI10
aI21
aI27
aI3
aI15
aI6
aI16
aI22
aI1
aI18
aI12
aI9
aa(lp35
I0
aI29
aI28
aI11
aI14
aI26
aI23
aI8
aI7
aI27
aI13
aI3
aI25
aI10
aI4
aI21
aI17
aI16
aI31
aI22
aI20
aI15
aI19
aI6
aI30
aI12
aI5
aI9
aI2
aI1
aI24
aI18
aa(lp36
I0
aI30
aI15
aI10
aI21
aI6
aI5
aI28
aI24
aI23
aI3
aI22
aI16
aI27
aI14
aI2
aI12
aI29
aI25
aI20
aI19
aI4
aI11
aI9
aI8
aI18
aI31
aI13
aI7
aI17
aI1
aI26
aa(lp37
I0
aI31
aI29
aI22
aI28
aI17
aI11
aI16
aI14
aI19
aI26
aI6
aI23
aI20
aI8
aI15
aI7
aI5
aI27
aI9
aI13
aI30
aI3
aI12
aI25
aI24
aI10
aI18
aI4
aI2
aI21
aI1
aasS'mulLUT'
p38
(lp39
(lp40
I0
aI0
aI0
aI0
aI0
aI0
aI0
aI0
aI0
aI0
aI0
aI0
aI0
aI0
aI0
aI0
aI0
aI0
aI0
aI0
aI0
aI0
aI0
aI0
aI0
aI0
aI0
aI0
aI0
aI0
aI0
aI0
aa(lp41
I0
aI1
aI2
aI3
aI4
aI5
aI6
aI7
aI8
aI9
aI10
aI11
aI12
aI13
aI14
aI15
aI16
aI17
aI18
aI19
aI20
aI21
aI22
aI23
aI24
aI25
aI26
aI27
aI28
aI29
aI30
aI31
aa(lp42
I0
aI2
aI4
aI6
aI8
aI10
aI12
aI14
aI16
aI18
aI20
aI22
aI24
aI26
aI28
aI30
aI5
aI7
aI1
aI3
aI13
aI15
aI9
aI11
aI21
aI23
aI17
aI19
aI29
aI31
aI25
aI27
aa(lp43
I0
aI3
aI6
aI5
aI12
aI15
aI10
aI9
aI24
aI27
aI30
aI29
aI20
aI23
aI18
aI17
aI21
aI22
aI19
aI16
aI25
aI26
aI31
aI28
aI13
aI14
aI11
aI8
aI1
aI2
aI7
aI4
aa(lp44
I0
aI4
aI8
aI12
aI16
aI20
aI24
aI28
aI5
aI1
aI13
aI9
aI21
aI17
aI29
aI25
aI10
aI14
aI2
aI6
aI26
aI30
aI18
aI22
aI15
aI11
aI7
aI3
aI31
aI27
aI23
aI19
aa(lp45
I0
aI5
aI10
aI15
aI20
aI17
aI30
aI27
aI13
aI8
aI7
aI2
aI25
aI28
aI19
aI22
aI26
aI31
aI16
aI21
aI14
aI11
aI4
aI1
aI23
aI18
aI29
aI24
aI3
aI6
aI9
aI12
aa(lp46
I0
aI6
aI12
aI10
aI24
aI30
aI20
aI18
aI21
aI19
aI25
aI31
aI13
aI11
aI1
aI7
aI15
aI9
aI3
aI5
aI23
aI17
aI27
aI29
aI26
aI28
aI22
aI16
aI2
aI4
aI14
aI8
aa(lp47
I0
aI7
aI14
aI9
aI28
aI27
aI18
aI21
aI29
aI26
aI19
aI20
aI1
aI6
aI15
aI8
aI31
aI24
aI17
aI22
aI3
aI4
aI13
aI10
aI2
aI5
aI12
aI11
aI30
aI25
aI16
aI23
aa(lp48
I0
aI8
aI16
aI24
aI5
aI13
aI21
aI29
aI10
aI2
aI26
aI18
aI15
aI7
aI31
aI23
aI20
aI28
aI4
aI12
aI17
aI25
aI1
aI9
aI30
aI22
aI14
aI6
aI27
aI19
aI11
aI3
aa(lp49
I0
aI9
aI18
aI27
aI1
aI8
aI19
aI26
aI2
aI11
aI16
aI25
aI3
aI10
aI17
aI24
aI4
aI13
aI22
aI31
aI5
aI12
aI23
aI30
aI6
aI15
aI20
aI29
aI7
aI14
aI21
aI28
aa(lp50
I0
aI10
aI20
aI30
aI13
aI7
aI25
aI19
aI26
aI16
aI14
aI4
aI23
aI29
aI3
aI9
aI17
aI27
aI5
aI15
aI28
aI22
aI8
aI2
aI11
aI1
aI31
aI21
aI6
aI12
aI18
aI24
aa(lp51
I0
aI11
aI22
aI29
aI9
aI2
aI31
aI20
aI18
aI25
aI4
aI15
aI27
aI16
aI13
aI6
aI1
aI10
aI23
aI28
aI8
aI3
aI30
aI21
aI19
aI24
aI5
aI14
aI26
aI17
aI12
aI7
aa(lp52
I0
aI12
aI24
aI20
aI21
aI25
aI13
aI1
aI15
aI3
aI23
aI27
aI26
aI22
aI2
aI14
aI30
aI18
aI6
aI10
aI11
aI7
aI19
aI31
aI17
aI29
aI9
aI5
aI4
aI8
aI28
aI16
aa(lp53
I0
aI13
aI26
aI23
aI17
aI28
aI11
aI6
aI7
aI10
aI29
aI16
aI22
aI27
aI12
aI1
aI14
aI3
aI20
aI25
aI31
aI18
aI5
aI8
aI9
aI4
aI19
aI30
aI24
aI21
aI2
aI15
aa(lp54
I0
aI14
aI28
aI18
aI29
aI19
aI1
aI15
aI31
aI17
aI3
aI13
aI2
aI12
aI30
aI16
aI27
aI21
aI7
aI9
aI6
aI8
aI26
aI20
aI4
aI10
aI24
aI22
aI25
aI23
aI5
aI11
aa(lp55
I0
aI15
aI30
aI17
aI25
aI22
aI7
aI8
aI23
aI24
aI9
aI6
aI14
aI1
aI16
aI31
aI11
aI4
aI21
aI26
aI18
aI29
aI12
aI3
aI28
aI19
aI2
aI13
aI5
aI10
aI27
aI20
aa(lp56
I0
aI16
aI5
aI21
aI10
aI26
aI15
aI31
aI20
aI4
aI17
aI1
aI30
aI14
aI27
aI11
aI13
aI29
aI8
aI24
aI7
aI23
aI2
aI18
aI25
aI9
aI28
aI12
aI19
aI3
aI22
aI6
aa(lp57
I0
aI17
aI7
aI22
aI14
aI31
aI9
aI24
aI28
aI13
aI27
aI10
aI18
aI3
aI21
aI4
aI29
aI12
aI26
aI11
aI19
aI2
aI20
aI5
aI1
aI16
aI6
aI23
aI15
aI30
aI8
aI25
aa(lp58
I0
aI18
aI1
aI19
aI2
aI16
aI3
aI17
aI4
aI22
aI5
aI23
aI6
aI20
aI7
aI21
aI8
aI26
aI9
aI27
aI10
aI24
aI11
aI25
aI12
aI30
aI13
aI31
aI14
aI28
aI15
aI29
aa(lp59
I0
aI19
aI3
aI16
aI6
aI21
aI5
aI22
aI12
aI31
aI15
aI28
aI10
aI25
aI9
aI26
aI24
aI11
aI27
aI8
aI30
aI13
aI29
aI14
aI20
aI7
aI23
aI4
aI18
aI1
aI17
aI2
aa(lp60
I0
aI20
aI13
aI25
aI26
aI14
aI23
aI3
aI17
aI5
aI28
aI8
aI11
aI31
aI6
aI18
aI7
aI19
aI10
aI30
aI29
aI9
aI16
aI4
aI22
aI2
aI27
aI15
aI12
aI24
aI1
aI21
aa(lp61
I0
aI21
aI15
aI26
aI30
aI11
aI17
aI4
aI25
aI12
aI22
aI3
aI7
aI18
aI8
aI29
aI23
aI2
aI24
aI13
aI9
aI28
aI6
aI19
aI14
aI27
aI1
aI20
aI16
aI5
aI31
aI10
aa(lp62
I0
aI22
aI9
aI31
aI18
aI4
aI27
aI13
aI1
aI23
aI8
aI30
aI19
aI5
aI26
aI12
aI2
aI20
aI11
aI29
aI16
aI6
aI25
aI15
aI3
aI21
aI10
aI28
aI17
aI7
aI24
aI14
aa(lp63
I0
aI23
aI11
aI28
aI22
aI1
aI29
aI10
aI9
aI30
aI2
aI21
aI31
aI8
aI20
aI3
aI18
aI5
aI25
aI14
aI4
aI19
aI15
aI24
aI27
aI12
aI16
aI7
aI13
aI26
aI6
aI17
aa(lp64
I0
aI24
aI21
aI13
aI15
aI23
aI26
aI2
aI30
aI6
aI11
aI19
aI17
aI9
aI4
aI28
aI25
aI1
aI12
aI20
aI22
aI14
aI3
aI27
aI7
aI31
aI18
aI10
aI8
aI16
aI29
aI5
aa(lp65
I0
aI25
aI23
aI14
aI11
aI18
aI28
aI5
aI22
aI15
aI1
aI24
aI29
aI4
aI10
aI19
aI9
aI16
aI30
aI7
aI2
aI27
aI21
aI12
aI31
aI6
aI8
aI17
aI20
aI13
aI3
aI26
aa(lp66
I0
aI26
aI17
aI11
aI7
aI29
aI22
aI12
aI14
aI20
aI31
aI5
aI9
aI19
aI24
aI2
aI28
aI6
aI13
aI23
aI27
aI1
aI10
aI16
aI18
aI8
aI3
aI25
aI21
aI15
aI4
aI30
aa(lp67
I0
aI27
aI19
aI8
aI3
aI24
aI16
aI11
aI6
aI29
aI21
aI14
aI5
aI30
aI22
aI13
aI12
aI23
aI31
aI4
aI15
aI20
aI28
aI7
aI10
aI17
aI25
aI2
aI9
aI18
aI26
aI1
aa(lp68
I0
aI28
aI29
aI1
aI31
aI3
aI2
aI30
aI27
aI7
aI6
aI26
aI4
aI24
aI25
aI5
aI19
aI15
aI14
aI18
aI12
aI16
aI17
aI13
aI8
aI20
aI21
aI9
aI23
aI11
aI10
aI22
aa(lp69
I0
aI29
aI31
aI2
aI27
aI6
aI4
aI25
aI19
aI14
aI12
aI17
aI8
aI21
aI23
aI10
aI3
aI30
aI28
aI1
aI24
aI5
aI7
aI26
aI16
aI13
aI15
aI18
aI11
aI22
aI20
aI9
aa(lp70
I0
aI30
aI25
aI7
aI23
aI9
aI14
aI16
aI11
aI21
aI18
aI12
aI28
aI2
aI5
aI27
aI22
aI8
aI15
aI17
aI1
aI31
aI24
aI6
aI29
aI3
aI4
aI26
aI10
aI20
aI19
aI13
aa(lp71
I0
aI31
aI27
aI4
aI19
aI12
aI8
aI23
aI3
aI28
aI24
aI7
aI16
aI15
aI11
aI20
aI6
aI25
aI29
aI2
aI21
aI10
aI14
aI17
aI5
aI26
aI30
aI1
aI22
aI9
aI13
aI18
aasb.