(iffield
LUT
p1
(dp2
S'divLUT'
p3
(lp4
(lp5
S'NaN'
p6
ag6
ag6
ag6
ag6
ag6
ag6
ag6
aa(lp7
I0
aI1
aI5
aI6
aI7
aI2
aI3
aI4
aa(lp8
I0
aI2
aI1
aI7
aI5
aI4
aI6
aI3
aa(lp9
I0
aI3
aI4
aI1
aI2
aI6
aI5
aI7
aa(lp10
I0
aI4
aI2
aI5
aI1
aI3
aI7
aI6
aa(lp11
I0
aI5
aI7
aI3
aI6
aI1
aI4
aI2
aa(lp12
I0
aI6
aI3
aI2
aI4
aI7
aI1
aI5
aa(lp13
I0
aI7
aI6
aI4
aI3
aI5
aI2
aI1
aasS'mulLUT'
p14
(lp15
(lp16
I0
aI0
aI0
aI0
aI0
aI0
aI0
aI0
aa(lp17
I0
aI1
aI2
aI3
aI4
aI5
aI6
aI7
aa(lp18
I0
aI2
aI4
aI6
aI3
aI1
aI7
aI5
aa(lp19
I0
aI3
aI6
aI5
aI7
aI4
aI1
aI2
aa(lp20
I0
aI4
aI3
aI7
aI6
aI2
aI5
aI1
aa(lp21
I0
aI5
aI1
aI4
aI2
aI7
aI3
aI6
aa(lp22
I0
aI6
aI7
aI1
aI5
aI3
aI2
aI4
aa(lp23
I0
aI7
aI5
aI2
aI1
aI6
aI4
aI3
aasb.