(iffield
LUT
p1
(dp2
S'divLUT'
p3
(lp4
(lp5
S'NaN'
p6
ag6
ag6
ag6
aa(lp7
I0
aI1
aI3
aI2
aa(lp8
I0
aI2
aI1
aI3
aa(lp9
I0
aI3
aI2
aI1
aasS'mulLUT'
p10
(lp11
(lp12
I0
aI0
aI0
aI0
aa(lp13
I0
aI1
aI2
aI3
aa(lp14
I0
aI2
aI3
aI1
aa(lp15
I0
aI3
aI1
aI2
aasb.